; Function Attrs: inlinehint nounwind uwtable
define internal fastcc void @Vec_StrPrintNum(ptr noundef captures(none) %0, i32 noundef %1) unnamed_addr #4 {
  %3 = alloca [16 x i8], align 16
  call void @llvm.lifetime.start.p0(i64 16, ptr nonnull %3) #11
  %4 = icmp eq i32 %1, 0
  br i1 %4, label %5, label %36

5:                                                ; preds = %2
  %6 = getelementptr inbounds nuw i8, ptr %0, i64 4
  %7 = load i32, ptr %6, align 4, !tbaa !41
  %8 = load i32, ptr %0, align 8, !tbaa !45
  %9 = icmp eq i32 %7, %8
  br i1 %9, label %10, label %.Vec_StrGrow.exit10_crit_edge.i

.Vec_StrGrow.exit10_crit_edge.i:                  ; preds = %5
  %.phi.trans.insert.i = getelementptr inbounds nuw i8, ptr %0, i64 8
  %.pre.i = load ptr, ptr %.phi.trans.insert.i, align 8, !tbaa !42
  br label %Vec_StrPush.exit

10:                                               ; preds = %5
  %11 = icmp slt i32 %7, 16
  br i1 %11, label %12, label %20

12:                                               ; preds = %10
  %13 = getelementptr inbounds nuw i8, ptr %0, i64 8
  %14 = load ptr, ptr %13, align 8, !tbaa !42
  %.not9.i.i = icmp eq ptr %14, null
  br i1 %.not9.i.i, label %17, label %15

15:                                               ; preds = %12
  %16 = tail call dereferenceable_or_null(16) ptr @realloc(ptr noundef nonnull %14, i64 noundef 16) #12
  br label %Vec_StrGrow.exit.i

17:                                               ; preds = %12
  %18 = tail call noalias dereferenceable_or_null(16) ptr @malloc(i64 noundef 16) #13
  br label %Vec_StrGrow.exit.i

Vec_StrGrow.exit.i:                               ; preds = %17, %15
  %19 = phi ptr [ %16, %15 ], [ %18, %17 ]
  store ptr %19, ptr %13, align 8, !tbaa !42
  store i32 16, ptr %0, align 8, !tbaa !45
  br label %Vec_StrPush.exit

20:                                               ; preds = %10
  %21 = shl nuw nsw i32 %7, 1
  %22 = getelementptr inbounds nuw i8, ptr %0, i64 8
  %23 = load ptr, ptr %22, align 8, !tbaa !42
  %.not9.i9.i = icmp eq ptr %23, null
  %24 = zext nneg i32 %21 to i64
  br i1 %.not9.i9.i, label %27, label %25

25:                                               ; preds = %20
  %26 = tail call ptr @realloc(ptr noundef nonnull %23, i64 noundef %24) #12
  br label %29

27:                                               ; preds = %20
  %28 = tail call noalias ptr @malloc(i64 noundef %24) #13
  br label %29

29:                                               ; preds = %27, %25
  %30 = phi ptr [ %26, %25 ], [ %28, %27 ]
  store ptr %30, ptr %22, align 8, !tbaa !42
  store i32 %21, ptr %0, align 8, !tbaa !45
  br label %Vec_StrPush.exit

Vec_StrPush.exit:                                 ; preds = %.Vec_StrGrow.exit10_crit_edge.i, %Vec_StrGrow.exit.i, %29
  %31 = phi ptr [ %.pre.i, %.Vec_StrGrow.exit10_crit_edge.i ], [ %30, %29 ], [ %19, %Vec_StrGrow.exit.i ]
  %32 = load i32, ptr %6, align 4, !tbaa !41
  %33 = add nsw i32 %32, 1
  store i32 %33, ptr %6, align 4, !tbaa !41
  %34 = sext i32 %32 to i64
  %35 = getelementptr inbounds i8, ptr %31, i64 %34
  store i8 48, ptr %35, align 1, !tbaa !43
  br label %.loopexit

36:                                               ; preds = %2
  %37 = icmp slt i32 %1, 0
  br i1 %37, label %38, label %.preheader40

.preheader40:                                     ; preds = %Vec_StrPush.exit23, %36
  %.11531.ph = phi i32 [ %1, %36 ], [ %69, %Vec_StrPush.exit23 ]
  br label %71

38:                                               ; preds = %36
  %39 = getelementptr inbounds nuw i8, ptr %0, i64 4
  %40 = load i32, ptr %39, align 4, !tbaa !41
  %41 = load i32, ptr %0, align 8, !tbaa !45
  %42 = icmp eq i32 %40, %41
  br i1 %42, label %43, label %.Vec_StrGrow.exit10_crit_edge.i17

.Vec_StrGrow.exit10_crit_edge.i17:                ; preds = %38
  %.phi.trans.insert.i18 = getelementptr inbounds nuw i8, ptr %0, i64 8
  %.pre.i19 = load ptr, ptr %.phi.trans.insert.i18, align 8, !tbaa !42
  br label %Vec_StrPush.exit23

43:                                               ; preds = %38
  %44 = icmp slt i32 %40, 16
  br i1 %44, label %45, label %53

45:                                               ; preds = %43
  %46 = getelementptr inbounds nuw i8, ptr %0, i64 8
  %47 = load ptr, ptr %46, align 8, !tbaa !42
  %.not9.i.i21 = icmp eq ptr %47, null
  br i1 %.not9.i.i21, label %50, label %48

48:                                               ; preds = %45
  %49 = tail call dereferenceable_or_null(16) ptr @realloc(ptr noundef nonnull %47, i64 noundef 16) #12
  br label %Vec_StrGrow.exit.i22

50:                                               ; preds = %45
  %51 = tail call noalias dereferenceable_or_null(16) ptr @malloc(i64 noundef 16) #13
  br label %Vec_StrGrow.exit.i22

Vec_StrGrow.exit.i22:                             ; preds = %50, %48
  %52 = phi ptr [ %49, %48 ], [ %51, %50 ]
  store ptr %52, ptr %46, align 8, !tbaa !42
  store i32 16, ptr %0, align 8, !tbaa !45
  br label %Vec_StrPush.exit23

53:                                               ; preds = %43
  %54 = shl nuw nsw i32 %40, 1
  %55 = getelementptr inbounds nuw i8, ptr %0, i64 8
  %56 = load ptr, ptr %55, align 8, !tbaa !42
  %.not9.i9.i20 = icmp eq ptr %56, null
  %57 = zext nneg i32 %54 to i64
  br i1 %.not9.i9.i20, label %60, label %58

58:                                               ; preds = %53
  %59 = tail call ptr @realloc(ptr noundef nonnull %56, i64 noundef %57) #12
  br label %62

60:                                               ; preds = %53
  %61 = tail call noalias ptr @malloc(i64 noundef %57) #13
  br label %62

62:                                               ; preds = %60, %58
  %63 = phi ptr [ %59, %58 ], [ %61, %60 ]
  store ptr %63, ptr %55, align 8, !tbaa !42
  store i32 %54, ptr %0, align 8, !tbaa !45
  br label %Vec_StrPush.exit23

Vec_StrPush.exit23:                               ; preds = %.Vec_StrGrow.exit10_crit_edge.i17, %Vec_StrGrow.exit.i22, %62
  %64 = phi ptr [ %.pre.i19, %.Vec_StrGrow.exit10_crit_edge.i17 ], [ %63, %62 ], [ %52, %Vec_StrGrow.exit.i22 ]
  %65 = load i32, ptr %39, align 4, !tbaa !41
  %66 = add nsw i32 %65, 1
  store i32 %66, ptr %39, align 4, !tbaa !41
  %67 = sext i32 %65 to i64
  %68 = getelementptr inbounds i8, ptr %64, i64 %67
  store i8 45, ptr %68, align 1, !tbaa !43
  %69 = sub nsw i32 0, %1
  br label %.preheader40

.preheader:                                       ; preds = %71
  %70 = getelementptr inbounds nuw i8, ptr %0, i64 4
  %.phi.trans.insert.i25 = getelementptr inbounds nuw i8, ptr %0, i64 8
  br label %76

71:                                               ; preds = %.preheader40, %71
  %indvars.iv35 = phi i64 [ %indvars.iv.next36, %71 ], [ 1, %.preheader40 ]
  %indvars.iv = phi i64 [ %indvars.iv.next, %71 ], [ 0, %.preheader40 ]
  %.11531 = phi i32 [ %75, %71 ], [ %.11531.ph, %.preheader40 ]
  %72 = urem i32 %.11531, 10
  %73 = trunc nuw nsw i32 %72 to i8
  %74 = getelementptr inbounds nuw [16 x i8], ptr %3, i64 0, i64 %indvars.iv
  store i8 %73, ptr %74, align 1, !tbaa !43
  %75 = udiv i32 %.11531, 10
  %indvars.iv.next = add nuw nsw i64 %indvars.iv, 1
  %.not = icmp ult i32 %.11531, 10
  %indvars.iv.next36 = add nuw i64 %indvars.iv35, 1
  br i1 %.not, label %.preheader, label %71, !llvm.loop !84

76:                                               ; preds = %.preheader, %Vec_StrPush.exit30
  %indvars.iv37 = phi i64 [ %indvars.iv35, %.preheader ], [ %indvars.iv.next38, %Vec_StrPush.exit30 ]
  %indvars.iv.next38 = add nsw i64 %indvars.iv37, -1
  %77 = getelementptr inbounds nuw [16 x i8], ptr %3, i64 0, i64 %indvars.iv.next38
  %78 = load i8, ptr %77, align 1, !tbaa !43
  %79 = add i8 %78, 48
  %80 = load i32, ptr %70, align 4, !tbaa !41
  %81 = load i32, ptr %0, align 8, !tbaa !45
  %82 = icmp eq i32 %80, %81
  br i1 %82, label %83, label %.Vec_StrGrow.exit10_crit_edge.i24

.Vec_StrGrow.exit10_crit_edge.i24:                ; preds = %76
  %.pre.i26 = load ptr, ptr %.phi.trans.insert.i25, align 8, !tbaa !42
  br label %Vec_StrPush.exit30

83:                                               ; preds = %76
  %84 = icmp slt i32 %80, 16
  br i1 %84, label %85, label %92

85:                                               ; preds = %83
  %86 = load ptr, ptr %.phi.trans.insert.i25, align 8, !tbaa !42
  %.not9.i.i28 = icmp eq ptr %86, null
  br i1 %.not9.i.i28, label %89, label %87

87:                                               ; preds = %85
  %88 = tail call dereferenceable_or_null(16) ptr @realloc(ptr noundef nonnull %86, i64 noundef 16) #12
  br label %Vec_StrGrow.exit.i29

89:                                               ; preds = %85
  %90 = tail call noalias dereferenceable_or_null(16) ptr @malloc(i64 noundef 16) #13
  br label %Vec_StrGrow.exit.i29

Vec_StrGrow.exit.i29:                             ; preds = %89, %87
  %91 = phi ptr [ %88, %87 ], [ %90, %89 ]
  store ptr %91, ptr %.phi.trans.insert.i25, align 8, !tbaa !42
  store i32 16, ptr %0, align 8, !tbaa !45
  br label %Vec_StrPush.exit30

92:                                               ; preds = %83
  %93 = shl nuw nsw i32 %80, 1
  %94 = load ptr, ptr %.phi.trans.insert.i25, align 8, !tbaa !42
  %.not9.i9.i27 = icmp eq ptr %94, null
  %95 = zext nneg i32 %93 to i64
  br i1 %.not9.i9.i27, label %98, label %96

96:                                               ; preds = %92
  %97 = tail call ptr @realloc(ptr noundef nonnull %94, i64 noundef %95) #12
  br label %100

98:                                               ; preds = %92
  %99 = tail call noalias ptr @malloc(i64 noundef %95) #13
  br label %100

100:                                              ; preds = %98, %96
  %101 = phi ptr [ %97, %96 ], [ %99, %98 ]
  store ptr %101, ptr %.phi.trans.insert.i25, align 8, !tbaa !42
  store i32 %93, ptr %0, align 8, !tbaa !45
  br label %Vec_StrPush.exit30

Vec_StrPush.exit30:                               ; preds = %.Vec_StrGrow.exit10_crit_edge.i24, %Vec_StrGrow.exit.i29, %100
  %102 = phi ptr [ %.pre.i26, %.Vec_StrGrow.exit10_crit_edge.i24 ], [ %101, %100 ], [ %91, %Vec_StrGrow.exit.i29 ]
  %103 = load i32, ptr %70, align 4, !tbaa !41
  %104 = add nsw i32 %103, 1
  store i32 %104, ptr %70, align 4, !tbaa !41
  %105 = sext i32 %103 to i64
  %106 = getelementptr inbounds i8, ptr %102, i64 %105
  store i8 %79, ptr %106, align 1, !tbaa !43
  %107 = trunc nuw i64 %indvars.iv37 to i32
  %108 = icmp sgt i32 %107, 1
  br i1 %108, label %76, label %.loopexit, !llvm.loop !85

.loopexit:                                        ; preds = %Vec_StrPush.exit30, %Vec_StrPush.exit
  call void @llvm.lifetime.end.p0(i64 16, ptr nonnull %3) #11
  ret void
}